; Function Attrs: nofree norecurse nosync nounwind memory(argmem: readwrite) uwtable
define void @dt_iop_image_invert(ptr noundef captures(none) %0, float noundef %1, i64 noundef %2, i64 noundef %3, i64 noundef %4) local_unnamed_addr #9 {
  %6 = mul i64 %3, %2
  %7 = mul i64 %6, %4
  %.not = icmp eq i64 %7, 0
  br i1 %.not, label %._crit_edge, label %.lr.ph

._crit_edge:                                      ; preds = %.lr.ph, %5
  ret void

.lr.ph:                                           ; preds = %5, %.lr.ph
  %.010 = phi i64 [ %11, %.lr.ph ], [ 0, %5 ]
  %8 = getelementptr inbounds nuw float, ptr %0, i64 %.010
  %9 = load float, ptr %8, align 4, !tbaa !32
  %10 = fsub reassoc nsz arcp contract afn float %1, %9
  store float %10, ptr %8, align 4, !tbaa !32
  %11 = add nuw i64 %.010, 1
  %exitcond.not = icmp eq i64 %11, %7
  br i1 %exitcond.not, label %._crit_edge, label %.lr.ph
}